; Function Attrs: mustprogress nounwind uwtable
define hidden void @_ZNK10VtableStub5printEv(ptr noundef nonnull align 8 dereferenceable(15) %0) local_unnamed_addr #0 align 2 {
  %2 = load ptr, ptr @tty, align 8
  %3 = getelementptr inbounds i8, ptr %0, i64 8
  %4 = load i16, ptr %3, align 8
  %5 = sext i16 %4 to i32
  %6 = load ptr, ptr @_ZN10VtableStub18_receiver_locationE, align 8
  %7 = ptrtoint ptr %6 to i64
  %8 = getelementptr inbounds i8, ptr %0, i64 16
  %9 = ptrtoint ptr %8 to i64
  %10 = getelementptr inbounds i8, ptr %0, i64 14
  %11 = load i8, ptr %10, align 2
  %12 = icmp eq i8 %11, 1
  %..i.i.i = select i1 %12, i32 64, i32 256
  %_ZN11VtableStubs15_vtab_stub_sizeE.val.i.i.i = load i32, ptr @_ZN11VtableStubs15_vtab_stub_sizeE, align 4
  %_ZN11VtableStubs15_itab_stub_sizeE.val.i.i.i = load i32, ptr @_ZN11VtableStubs15_itab_stub_sizeE, align 4
  %13 = select i1 %12, i32 %_ZN11VtableStubs15_vtab_stub_sizeE.val.i.i.i, i32 %_ZN11VtableStubs15_itab_stub_sizeE.val.i.i.i
  %14 = icmp sgt i32 %13, 0
  %15 = select i1 %14, i32 %13, i32 %..i.i.i
  %16 = sext i32 %15 to i64
  %17 = getelementptr inbounds i8, ptr %8, i64 %16
  %18 = ptrtoint ptr %17 to i64
  tail call void (ptr, ptr, ...) @_ZN12outputStream5printEPKcz(ptr noundef nonnull align 8 dereferenceable(56) %2, ptr noundef nonnull @.str.6, i32 noundef %5, i64 noundef %7, i64 noundef %9, i64 noundef %18) #7
  ret void
}